; Function Attrs: mustprogress nounwind uwtable
define hidden void @_ZN14JfrJavaSupport20new_object_local_refEP16JfrJavaArgumentsP10JavaThread(ptr noundef nonnull %0, ptr noundef %1) local_unnamed_addr #0 align 2 {
  %3 = tail call noundef ptr @_ZNK16JfrJavaArguments6resultEv(ptr noundef nonnull align 8 dereferenceable(300) %0) #13
  tail call fastcc void @_ZL13create_objectP16JfrJavaArgumentsP9JavaValueP10JavaThread(ptr noundef nonnull %0, ptr noundef %3, ptr noundef %1)
  %4 = getelementptr inbounds i8, ptr %1, i64 8
  %5 = load ptr, ptr %4, align 8
  %.not = icmp eq ptr %5, null
  br i1 %.not, label %6, label %_ZL13handle_resultP9JavaValuebP10JavaThread.exit

6:                                                ; preds = %2
  %7 = getelementptr inbounds i8, ptr %3, i64 8
  %8 = load ptr, ptr %7, align 8
  %9 = icmp eq ptr %8, null
  br i1 %9, label %_ZL13handle_resultP9JavaValuebP10JavaThread.exit, label %10

10:                                               ; preds = %6
  %11 = getelementptr inbounds i8, ptr %1, i64 1072
  %12 = load ptr, ptr %11, align 8
  %13 = tail call noundef ptr @_ZN14JNIHandleBlock15allocate_handleEP10JavaThreadP7oopDescN17AllocFailStrategy13AllocFailEnumE(ptr noundef nonnull align 8 dereferenceable(296) %12, ptr noundef nonnull %1, ptr noundef nonnull %8, i32 noundef 0) #13
  store ptr %13, ptr %7, align 8
  br label %_ZL13handle_resultP9JavaValuebP10JavaThread.exit

_ZL13handle_resultP9JavaValuebP10JavaThread.exit: ; preds = %10, %6, %2
  ret void
}